target datalayout = "e-m:e-p270:32:32-p271:32:32-p272:64:64-i64:64-i128:128-f80:128-n8:16:32:64-S128"
target triple = "x86_64-pc-linux-gnu"

@.str.8 = private unnamed_addr constant [6 x i8] c"cpath\00", align 1
@.str.27 = private unnamed_addr constant [2 x i8] c".\00", align 1
@.str.29 = private unnamed_addr constant [2 x i8] c"/\00", align 1
@.str.37 = private unnamed_addr constant [30 x i8] c"'package.%s' must be a string\00", align 1
@.str.38 = private unnamed_addr constant [46 x i8] c"error loading module '%s' from file '%s':\0A\09%s\00", align 1

; Function Attrs: nounwind uwtable
define internal void @loaderror(ptr noundef %0, ptr noundef %1) #0 {
  %3 = alloca ptr, align 8
  %4 = alloca ptr, align 8
  store ptr %0, ptr %3, align 8, !tbaa !4
  store ptr %1, ptr %4, align 8, !tbaa !14
  %5 = load ptr, ptr %3, align 8, !tbaa !4
  %6 = load ptr, ptr %3, align 8, !tbaa !4
  %7 = call ptr @lua_tolstring(ptr noundef %6, i32 noundef 1, ptr noundef null)
  %8 = load ptr, ptr %4, align 8, !tbaa !14
  %9 = load ptr, ptr %3, align 8, !tbaa !4
  %10 = call ptr @lua_tolstring(ptr noundef %9, i32 noundef -1, ptr noundef null)
  %11 = call i32 (ptr, ptr, ...) @luaL_error(ptr noundef %5, ptr noundef @.str.38, ptr noundef %7, ptr noundef %8, ptr noundef %10)
  ret void
}

; Function Attrs: nounwind uwtable
define internal ptr @findfile(ptr noundef %0, ptr noundef %1, ptr noundef %2) #0 {
  %4 = alloca ptr, align 8
  %5 = alloca ptr, align 8
  %6 = alloca ptr, align 8
  %7 = alloca ptr, align 8
  store ptr %0, ptr %4, align 8, !tbaa !4
  store ptr %1, ptr %5, align 8, !tbaa !14
  store ptr %2, ptr %6, align 8, !tbaa !14
  call void @llvm.lifetime.start.p0(i64 8, ptr %7) #5
  %8 = load ptr, ptr %4, align 8, !tbaa !4
  %9 = load ptr, ptr %6, align 8, !tbaa !14
  call void @lua_getfield(ptr noundef %8, i32 noundef -10001, ptr noundef %9)
  %10 = load ptr, ptr %4, align 8, !tbaa !4
  %11 = call ptr @lua_tolstring(ptr noundef %10, i32 noundef -1, ptr noundef null)
  store ptr %11, ptr %7, align 8, !tbaa !14
  %12 = load ptr, ptr %7, align 8, !tbaa !14
  %13 = icmp eq ptr %12, null
  br i1 %13, label %14, label %18

14:                                               ; preds = %3
  %15 = load ptr, ptr %4, align 8, !tbaa !4
  %16 = load ptr, ptr %6, align 8, !tbaa !14
  %17 = call i32 (ptr, ptr, ...) @luaL_error(ptr noundef %15, ptr noundef @.str.37, ptr noundef %16)
  br label %18

18:                                               ; preds = %14, %3
  %19 = load ptr, ptr %4, align 8, !tbaa !4
  %20 = load ptr, ptr %5, align 8, !tbaa !14
  %21 = load ptr, ptr %7, align 8, !tbaa !14
  %22 = call ptr @searchpath(ptr noundef %19, ptr noundef %20, ptr noundef %21, ptr noundef @.str.27, ptr noundef @.str.29)
  call void @llvm.lifetime.end.p0(i64 8, ptr %7) #5
  ret ptr %22
}

; Function Attrs: nounwind uwtable
define internal i32 @lj_cf_package_loader_c(ptr noundef %0) #0 {
  %2 = alloca i32, align 4
  %3 = alloca ptr, align 8
  %4 = alloca ptr, align 8
  %5 = alloca ptr, align 8
  %6 = alloca i32, align 4
  store ptr %0, ptr %3, align 8, !tbaa !4
  call void @llvm.lifetime.start.p0(i64 8, ptr %4) #5
  %7 = load ptr, ptr %3, align 8, !tbaa !4
  %8 = call ptr @luaL_checklstring(ptr noundef %7, i32 noundef 1, ptr noundef null)
  store ptr %8, ptr %4, align 8, !tbaa !14
  call void @llvm.lifetime.start.p0(i64 8, ptr %5) #5
  %9 = load ptr, ptr %3, align 8, !tbaa !4
  %10 = load ptr, ptr %4, align 8, !tbaa !14
  %11 = call ptr @findfile(ptr noundef %9, ptr noundef %10, ptr noundef @.str.8)
  store ptr %11, ptr %5, align 8, !tbaa !14
  %12 = load ptr, ptr %5, align 8, !tbaa !14
  %13 = icmp eq ptr %12, null
  br i1 %13, label %14, label %15

14:                                               ; preds = %1
  store i32 1, ptr %2, align 4
  store i32 1, ptr %6, align 4
  br label %25

15:                                               ; preds = %1
  %16 = load ptr, ptr %3, align 8, !tbaa !4
  %17 = load ptr, ptr %5, align 8, !tbaa !14
  %18 = load ptr, ptr %4, align 8, !tbaa !14
  %19 = call i32 @ll_loadfunc(ptr noundef %16, ptr noundef %17, ptr noundef %18, i32 noundef 0)
  %20 = icmp ne i32 %19, 0
  br i1 %20, label %21, label %24

21:                                               ; preds = %15
  %22 = load ptr, ptr %3, align 8, !tbaa !4
  %23 = load ptr, ptr %5, align 8, !tbaa !14
  call void @loaderror(ptr noundef %22, ptr noundef %23)
  br label %24

24:                                               ; preds = %21, %15
  store i32 1, ptr %2, align 4
  store i32 1, ptr %6, align 4
  br label %25

25:                                               ; preds = %24, %14
  call void @llvm.lifetime.end.p0(i64 8, ptr %5) #5
  call void @llvm.lifetime.end.p0(i64 8, ptr %4) #5
  %26 = load i32, ptr %2, align 4
  ret i32 %26
}