; Function Attrs: nounwind uwtable
define internal noundef i32 @lj_cf_package_loader_c(ptr noundef %0) #0 {
  %2 = tail call ptr @luaL_checklstring(ptr noundef %0, i32 noundef 1, ptr noundef null) #7
  tail call void @lua_getfield(ptr noundef %0, i32 noundef -10001, ptr noundef nonnull @.str.8) #7
  %3 = tail call ptr @lua_tolstring(ptr noundef %0, i32 noundef -1, ptr noundef null) #7
  %4 = icmp eq ptr %3, null
  br i1 %4, label %.split10.i, label %findfile.exit

.split10.i:                                       ; preds = %1
  %5 = tail call i32 (ptr, ptr, ...) @luaL_error(ptr noundef %0, ptr noundef nonnull @.str.37, ptr noundef nonnull @.str.8) #7
  br label %findfile.exit

findfile.exit:                                    ; preds = %1, %.split10.i
  %6 = tail call fastcc ptr @searchpath(ptr noundef %0, ptr noundef %2, ptr noundef %3, ptr noundef nonnull @.str.27, ptr noundef nonnull @.str.29)
  %7 = icmp eq ptr %6, null
  br i1 %7, label %14, label %8

8:                                                ; preds = %findfile.exit
  %9 = tail call fastcc i32 @ll_loadfunc(ptr noundef %0, ptr noundef nonnull %6, ptr noundef %2, i32 noundef 0)
  %.not = icmp eq i32 %9, 0
  br i1 %.not, label %14, label %10

10:                                               ; preds = %8
  %11 = tail call ptr @lua_tolstring(ptr noundef %0, i32 noundef 1, ptr noundef null) #7
  %12 = tail call ptr @lua_tolstring(ptr noundef %0, i32 noundef -1, ptr noundef null) #7
  %13 = tail call i32 (ptr, ptr, ...) @luaL_error(ptr noundef %0, ptr noundef nonnull @.str.38, ptr noundef %11, ptr noundef nonnull %6, ptr noundef %12) #7
  br label %14

14:                                               ; preds = %8, %10, %findfile.exit
  ret i32 1
}